target datalayout = "e-m:e-p270:32:32-p271:32:32-p272:64:64-i64:64-i128:128-f80:128-n8:16:32:64-S128"
target triple = "x86_64-pc-linux-gnu"

%struct.nstime_t = type { i64, i32 }
%struct._proto_node = type { ptr, ptr, ptr, ptr, ptr, ptr, ptr }
%struct.field_info = type { ptr, i32, i32, i32, i32, i32, i32, ptr, ptr, ptr, i32, i32 }

@hf_iperf2_reserved2 = internal global i32 0, align 4
@hf_iperf2_start_tv_sec = internal global i32 0, align 4
@hf_iperf2_start_tv_usec = internal global i32 0, align 4
@hf_iperf2_start_tv = internal global i32 0, align 4
@hf_iperf2_fq_ratel = internal global i32 0, align 4
@hf_iperf2_fq_rateu = internal global i32 0, align 4
@ett_fqhdr = internal global i32 0, align 4
@.str.240 = private unnamed_addr constant [36 x i8] c"iPerf2 Fair Queue Start Time Header\00", align 1

; Function Attrs: inlinehint nounwind null_pointer_is_valid sspstrong uwtable
define internal void @proto_item_set_generated(ptr noundef %0) #4 {
  %2 = alloca ptr, align 8
  store ptr %0, ptr %2, align 8
  %3 = load ptr, ptr %2, align 8
  %4 = icmp ne ptr %3, null
  br i1 %4, label %5, label %24

5:                                                ; preds = %1
  br label %6

6:                                                ; preds = %5
  %7 = load ptr, ptr %2, align 8
  %8 = getelementptr inbounds nuw %struct._proto_node, ptr %7, i32 0, i32 5
  %9 = load ptr, ptr %8, align 8
  %10 = icmp ne ptr %9, null
  br i1 %10, label %11, label %22

11:                                               ; preds = %6
  %12 = load ptr, ptr %2, align 8
  %13 = getelementptr inbounds nuw %struct._proto_node, ptr %12, i32 0, i32 5
  %14 = load ptr, ptr %13, align 8
  %15 = getelementptr inbounds nuw %struct.field_info, ptr %14, i32 0, i32 6
  %16 = load i32, ptr %15, align 4
  %17 = or i32 %16, 2
  %18 = load ptr, ptr %2, align 8
  %19 = getelementptr inbounds nuw %struct._proto_node, ptr %18, i32 0, i32 5
  %20 = load ptr, ptr %19, align 8
  %21 = getelementptr inbounds nuw %struct.field_info, ptr %20, i32 0, i32 6
  store i32 %17, ptr %21, align 4
  br label %22

22:                                               ; preds = %11, %6
  br label %23

23:                                               ; preds = %22
  br label %24

24:                                               ; preds = %23, %1
  ret void
}

; Function Attrs: null_pointer_is_valid sspstrong uwtable
define internal i32 @dissect_iperf2_fq_start_time_header(ptr noundef %0, ptr noundef %1, i32 noundef %2) #0 {
  %4 = alloca ptr, align 8
  %5 = alloca ptr, align 8
  %6 = alloca i32, align 4
  %7 = alloca ptr, align 8
  %8 = alloca i32, align 4
  %9 = alloca ptr, align 8
  %10 = alloca i32, align 4
  %11 = alloca i32, align 4
  %12 = alloca %struct.nstime_t, align 8
  store ptr %0, ptr %4, align 8
  store ptr %1, ptr %5, align 8
  store i32 %2, ptr %6, align 4
  call void @llvm.lifetime.start.p0(i64 8, ptr %7) #5
  call void @llvm.lifetime.start.p0(i64 4, ptr %8) #5
  %13 = load i32, ptr %6, align 4
  store i32 %13, ptr %8, align 4
  call void @llvm.lifetime.start.p0(i64 8, ptr %9) #5
  call void @llvm.lifetime.start.p0(i64 4, ptr %10) #5
  store i32 0, ptr %10, align 4
  call void @llvm.lifetime.start.p0(i64 4, ptr %11) #5
  store i32 0, ptr %11, align 4
  call void @llvm.lifetime.start.p0(i64 16, ptr %12) #5
  %14 = load ptr, ptr %5, align 8
  %15 = load ptr, ptr %4, align 8
  %16 = load i32, ptr %6, align 4
  %17 = load i32, ptr @ett_fqhdr, align 4
  %18 = call ptr @proto_tree_add_subtree(ptr noundef %14, ptr noundef %15, i32 noundef %16, i32 noundef 20, i32 noundef %17, ptr noundef null, ptr noundef @.str.240)
  store ptr %18, ptr %9, align 8
  %19 = load ptr, ptr %9, align 8
  %20 = load i32, ptr @hf_iperf2_reserved2, align 4
  %21 = load ptr, ptr %4, align 8
  %22 = load i32, ptr %6, align 4
  %23 = call ptr @proto_tree_add_item(ptr noundef %19, i32 noundef %20, ptr noundef %21, i32 noundef %22, i32 noundef 4, i32 noundef 0)
  %24 = load i32, ptr %6, align 4
  %25 = add i32 %24, 4
  store i32 %25, ptr %6, align 4
  %26 = load ptr, ptr %9, align 8
  %27 = load i32, ptr @hf_iperf2_start_tv_sec, align 4
  %28 = load ptr, ptr %4, align 8
  %29 = load i32, ptr %6, align 4
  %30 = call ptr @proto_tree_add_item_ret_uint(ptr noundef %26, i32 noundef %27, ptr noundef %28, i32 noundef %29, i32 noundef 4, i32 noundef 0, ptr noundef %10)
  %31 = load i32, ptr %6, align 4
  %32 = add i32 %31, 4
  store i32 %32, ptr %6, align 4
  %33 = load ptr, ptr %9, align 8
  %34 = load i32, ptr @hf_iperf2_start_tv_usec, align 4
  %35 = load ptr, ptr %4, align 8
  %36 = load i32, ptr %6, align 4
  %37 = call ptr @proto_tree_add_item_ret_uint(ptr noundef %33, i32 noundef %34, ptr noundef %35, i32 noundef %36, i32 noundef 4, i32 noundef 0, ptr noundef %11)
  %38 = load i32, ptr %6, align 4
  %39 = add i32 %38, 4
  store i32 %39, ptr %6, align 4
  %40 = load i32, ptr %10, align 4
  %41 = zext i32 %40 to i64
  %42 = getelementptr inbounds nuw %struct.nstime_t, ptr %12, i32 0, i32 0
  store i64 %41, ptr %42, align 8
  %43 = load i32, ptr %11, align 4
  %44 = mul i32 %43, 1000
  %45 = getelementptr inbounds nuw %struct.nstime_t, ptr %12, i32 0, i32 1
  store i32 %44, ptr %45, align 8
  %46 = load ptr, ptr %9, align 8
  %47 = load i32, ptr @hf_iperf2_start_tv, align 4
  %48 = load ptr, ptr %4, align 8
  %49 = load i32, ptr %6, align 4
  %50 = sub i32 %49, 8
  %51 = call ptr @proto_tree_add_time(ptr noundef %46, i32 noundef %47, ptr noundef %48, i32 noundef %50, i32 noundef 8, ptr noundef %12)
  store ptr %51, ptr %7, align 8
  %52 = load ptr, ptr %7, align 8
  call void @proto_item_set_generated(ptr noundef %52)
  %53 = load ptr, ptr %9, align 8
  %54 = load i32, ptr @hf_iperf2_fq_ratel, align 4
  %55 = load ptr, ptr %4, align 8
  %56 = load i32, ptr %6, align 4
  %57 = call ptr @proto_tree_add_item(ptr noundef %53, i32 noundef %54, ptr noundef %55, i32 noundef %56, i32 noundef 4, i32 noundef 0)
  %58 = load i32, ptr %6, align 4
  %59 = add i32 %58, 4
  store i32 %59, ptr %6, align 4
  %60 = load ptr, ptr %9, align 8
  %61 = load i32, ptr @hf_iperf2_fq_rateu, align 4
  %62 = load ptr, ptr %4, align 8
  %63 = load i32, ptr %6, align 4
  %64 = call ptr @proto_tree_add_item(ptr noundef %60, i32 noundef %61, ptr noundef %62, i32 noundef %63, i32 noundef 4, i32 noundef 0)
  %65 = load i32, ptr %6, align 4
  %66 = add i32 %65, 4
  store i32 %66, ptr %6, align 4
  %67 = load i32, ptr %6, align 4
  %68 = load i32, ptr %8, align 4
  %69 = sub i32 %67, %68
  call void @llvm.lifetime.end.p0(i64 16, ptr %12) #5
  call void @llvm.lifetime.end.p0(i64 4, ptr %11) #5
  call void @llvm.lifetime.end.p0(i64 4, ptr %10) #5
  call void @llvm.lifetime.end.p0(i64 8, ptr %9) #5
  call void @llvm.lifetime.end.p0(i64 4, ptr %8) #5
  call void @llvm.lifetime.end.p0(i64 8, ptr %7) #5
  ret i32 %69
}