; Function Attrs: null_pointer_is_valid sspstrong uwtable
define internal fastcc noundef i32 @dissect_iperf2_fq_start_time_header(ptr noundef %0, ptr noundef %1, i32 noundef %2) unnamed_addr #0 {
  %4 = alloca i32, align 4
  %5 = alloca i32, align 4
  %6 = alloca %struct.nstime_t, align 8
  call void @llvm.lifetime.start.p0(i64 4, ptr nonnull %4) #5
  store i32 0, ptr %4, align 4
  call void @llvm.lifetime.start.p0(i64 4, ptr nonnull %5) #5
  store i32 0, ptr %5, align 4
  call void @llvm.lifetime.start.p0(i64 16, ptr nonnull %6) #5
  %7 = load i32, ptr @ett_fqhdr, align 4
  %8 = tail call ptr @proto_tree_add_subtree(ptr noundef %1, ptr noundef %0, i32 noundef %2, i32 noundef 20, i32 noundef %7, ptr noundef null, ptr noundef nonnull @.str.240)
  %9 = load i32, ptr @hf_iperf2_reserved2, align 4
  %10 = tail call ptr @proto_tree_add_item(ptr noundef %8, i32 noundef %9, ptr noundef %0, i32 noundef %2, i32 noundef 4, i32 noundef 0)
  %11 = add i32 %2, 4
  %12 = load i32, ptr @hf_iperf2_start_tv_sec, align 4
  %13 = call ptr @proto_tree_add_item_ret_uint(ptr noundef %8, i32 noundef %12, ptr noundef %0, i32 noundef %11, i32 noundef 4, i32 noundef 0, ptr noundef nonnull %4)
  %14 = add i32 %2, 8
  %15 = load i32, ptr @hf_iperf2_start_tv_usec, align 4
  %16 = call ptr @proto_tree_add_item_ret_uint(ptr noundef %8, i32 noundef %15, ptr noundef %0, i32 noundef %14, i32 noundef 4, i32 noundef 0, ptr noundef nonnull %5)
  %17 = load i32, ptr %4, align 4
  %18 = zext i32 %17 to i64
  store i64 %18, ptr %6, align 8
  %19 = load i32, ptr %5, align 4
  %20 = mul i32 %19, 1000
  %21 = getelementptr inbounds nuw i8, ptr %6, i64 8
  store i32 %20, ptr %21, align 8
  %22 = load i32, ptr @hf_iperf2_start_tv, align 4
  %23 = call ptr @proto_tree_add_time(ptr noundef %8, i32 noundef %22, ptr noundef %0, i32 noundef %11, i32 noundef 8, ptr noundef nonnull %6)
  %.not.i = icmp eq ptr %23, null
  br i1 %.not.i, label %proto_item_set_generated.exit, label %24

24:                                               ; preds = %3
  %25 = getelementptr inbounds nuw i8, ptr %23, i64 40
  %26 = load ptr, ptr %25, align 8
  %.not5.i = icmp eq ptr %26, null
  br i1 %.not5.i, label %proto_item_set_generated.exit, label %27

27:                                               ; preds = %24
  %28 = getelementptr inbounds nuw i8, ptr %26, i64 28
  %29 = load i32, ptr %28, align 4
  %30 = or i32 %29, 2
  store i32 %30, ptr %28, align 4
  br label %proto_item_set_generated.exit

proto_item_set_generated.exit:                    ; preds = %3, %24, %27
  %31 = add i32 %2, 12
  %32 = load i32, ptr @hf_iperf2_fq_ratel, align 4
  %33 = call ptr @proto_tree_add_item(ptr noundef %8, i32 noundef %32, ptr noundef %0, i32 noundef %31, i32 noundef 4, i32 noundef 0)
  %34 = add i32 %2, 16
  %35 = load i32, ptr @hf_iperf2_fq_rateu, align 4
  %36 = call ptr @proto_tree_add_item(ptr noundef %8, i32 noundef %35, ptr noundef %0, i32 noundef %34, i32 noundef 4, i32 noundef 0)
  call void @llvm.lifetime.end.p0(i64 16, ptr nonnull %6) #5
  call void @llvm.lifetime.end.p0(i64 4, ptr nonnull %5) #5
  call void @llvm.lifetime.end.p0(i64 4, ptr nonnull %4) #5
  ret i32 20
}